; Function Attrs: mustprogress nofree norecurse nosync nounwind willreturn memory(readwrite, argmem: read, inaccessiblemem: none) uwtable
define hidden void @_ZN17ContinuationEntry14set_enter_codeEP7nmethodi(ptr noundef %0, i32 noundef %1) local_unnamed_addr #0 align 2 {
  %3 = getelementptr inbounds i8, ptr %0, i64 36
  %4 = load i32, ptr %3, align 4
  %5 = sext i32 %4 to i64
  %6 = getelementptr inbounds i8, ptr %0, i64 %5
  %7 = load i32, ptr @_ZN17ContinuationEntry17_return_pc_offsetE, align 4
  %8 = sext i32 %7 to i64
  %9 = getelementptr inbounds i8, ptr %6, i64 %8
  store ptr %9, ptr @_ZN17ContinuationEntry10_return_pcE, align 8
  store ptr %0, ptr @_ZN17ContinuationEntry14_enter_specialE, align 8
  store i32 %1, ptr @_ZN17ContinuationEntry25_interpreted_entry_offsetE, align 4
  ret void
}